target datalayout = "e-m:e-p270:32:32-p271:32:32-p272:64:64-i64:64-i128:128-f80:128-n8:16:32:64-S128"
target triple = "x86_64-pc-linux-gnu"

%struct._address = type { i32, i32, ptr, ptr }
%struct.aeron_frame_info_t_stct = type { i32, i32, %struct.aeron_frame_link_t, %struct.aeron_frame_link_t, %struct.aeron_frame_link_t, %struct.aeron_frame_link_t, ptr, ptr, ptr, ptr, i32 }
%struct.aeron_frame_link_t = type { i32, i32 }
%struct.aeron_transport_t_stct = type { i64, ptr, ptr, %struct._address, %struct._address, i32, i16, i16 }
%struct.aeron_pos_t = type { i32, i32 }
%struct._proto_node = type { ptr, ptr, ptr, ptr, ptr, ptr, ptr }
%struct.field_info = type { ptr, i32, i32, i32, i32, i32, i32, ptr, ptr, ptr, i32, i32 }
%struct.aeron_stream_t_stct = type { ptr, ptr, ptr, i32, ptr, i32, i32, i32, i32, i32, %struct.aeron_pos_t }
%struct.aeron_fragment_t_stct = type { ptr, ptr, ptr, ptr, ptr, i32, i32, i32, i32 }
%struct.aeron_term_t_stct = type { ptr, ptr, ptr, ptr, ptr, ptr, i32 }

@hf_aeron_data_next_offset = internal global i32 0, align 4
@hf_aeron_data_next_offset_term = internal global i32 0, align 4
@hf_aeron_data_next_offset_first_frame = internal global i32 0, align 4

; Function Attrs: inlinehint nounwind null_pointer_is_valid sspstrong uwtable
define internal void @proto_item_set_generated(ptr noundef %0) #6 {
  %2 = alloca ptr, align 8
  store ptr %0, ptr %2, align 8
  %3 = load ptr, ptr %2, align 8
  %4 = icmp ne ptr %3, null
  br i1 %4, label %5, label %24

5:                                                ; preds = %1
  br label %6

6:                                                ; preds = %5
  %7 = load ptr, ptr %2, align 8
  %8 = getelementptr inbounds nuw %struct._proto_node, ptr %7, i32 0, i32 5
  %9 = load ptr, ptr %8, align 8
  %10 = icmp ne ptr %9, null
  br i1 %10, label %11, label %22

11:                                               ; preds = %6
  %12 = load ptr, ptr %2, align 8
  %13 = getelementptr inbounds nuw %struct._proto_node, ptr %12, i32 0, i32 5
  %14 = load ptr, ptr %13, align 8
  %15 = getelementptr inbounds nuw %struct.field_info, ptr %14, i32 0, i32 6
  %16 = load i32, ptr %15, align 4
  %17 = or i32 %16, 2
  %18 = load ptr, ptr %2, align 8
  %19 = getelementptr inbounds nuw %struct._proto_node, ptr %18, i32 0, i32 5
  %20 = load ptr, ptr %19, align 8
  %21 = getelementptr inbounds nuw %struct.field_info, ptr %20, i32 0, i32 6
  store i32 %17, ptr %21, align 4
  br label %22

22:                                               ; preds = %11, %6
  br label %23

23:                                               ; preds = %22
  br label %24

24:                                               ; preds = %23, %1
  ret void
}

; Function Attrs: null_pointer_is_valid sspstrong uwtable
define internal ptr @aeron_term_fragment_find(ptr noundef %0, i32 noundef %1) #0 {
  %3 = alloca ptr, align 8
  %4 = alloca i32, align 4
  %5 = alloca ptr, align 8
  store ptr %0, ptr %3, align 8
  store i32 %1, ptr %4, align 4
  call void @llvm.lifetime.start.p0(i64 8, ptr %5) #15
  %6 = load ptr, ptr %3, align 8
  %7 = getelementptr inbounds nuw %struct.aeron_term_t_stct, ptr %6, i32 0, i32 1
  %8 = load ptr, ptr %7, align 8
  %9 = call ptr @wmem_map_lookup(ptr noundef %8, ptr noundef %4)
  store ptr %9, ptr %5, align 8
  %10 = load ptr, ptr %5, align 8
  call void @llvm.lifetime.end.p0(i64 8, ptr %5) #15
  ret ptr %10
}

; Function Attrs: null_pointer_is_valid sspstrong uwtable
define internal ptr @aeron_stream_term_find(ptr noundef %0, i32 noundef %1) #0 {
  %3 = alloca ptr, align 8
  %4 = alloca i32, align 4
  %5 = alloca ptr, align 8
  store ptr %0, ptr %3, align 8
  store i32 %1, ptr %4, align 4
  call void @llvm.lifetime.start.p0(i64 8, ptr %5) #15
  %6 = load ptr, ptr %3, align 8
  %7 = getelementptr inbounds nuw %struct.aeron_stream_t_stct, ptr %6, i32 0, i32 1
  %8 = load ptr, ptr %7, align 8
  %9 = call ptr @wmem_map_lookup(ptr noundef %8, ptr noundef %4)
  store ptr %9, ptr %5, align 8
  %10 = load ptr, ptr %5, align 8
  call void @llvm.lifetime.end.p0(i64 8, ptr %5) #15
  ret ptr %10
}

; Function Attrs: null_pointer_is_valid sspstrong uwtable
define internal ptr @aeron_transport_stream_find(ptr noundef %0, i32 noundef %1) #0 {
  %3 = alloca ptr, align 8
  %4 = alloca i32, align 4
  %5 = alloca ptr, align 8
  store ptr %0, ptr %3, align 8
  store i32 %1, ptr %4, align 4
  call void @llvm.lifetime.start.p0(i64 8, ptr %5) #15
  %6 = load ptr, ptr %3, align 8
  %7 = getelementptr inbounds nuw %struct.aeron_transport_t_stct, ptr %6, i32 0, i32 1
  %8 = load ptr, ptr %7, align 8
  %9 = call ptr @wmem_map_lookup(ptr noundef %8, ptr noundef %4)
  store ptr %9, ptr %5, align 8
  %10 = load ptr, ptr %5, align 8
  call void @llvm.lifetime.end.p0(i64 8, ptr %5) #15
  ret ptr %10
}

; Function Attrs: null_pointer_is_valid sspstrong uwtable
define internal void @aeron_next_offset_report(ptr noundef %0, ptr noundef %1, ptr noundef %2, i32 noundef %3, i32 noundef %4, i32 noundef %5, i32 noundef %6) #0 {
  %8 = alloca ptr, align 8
  %9 = alloca ptr, align 8
  %10 = alloca ptr, align 8
  %11 = alloca i32, align 4
  %12 = alloca i32, align 4
  %13 = alloca i32, align 4
  %14 = alloca i32, align 4
  %15 = alloca ptr, align 8
  %16 = alloca ptr, align 8
  %17 = alloca ptr, align 8
  %18 = alloca i32, align 4
  %19 = alloca i32, align 4
  %20 = alloca ptr, align 8
  %21 = alloca ptr, align 8
  %22 = alloca ptr, align 8
  store ptr %0, ptr %8, align 8
  store ptr %1, ptr %9, align 8
  store ptr %2, ptr %10, align 8
  store i32 %3, ptr %11, align 4
  store i32 %4, ptr %12, align 4
  store i32 %5, ptr %13, align 4
  store i32 %6, ptr %14, align 4
  call void @llvm.lifetime.start.p0(i64 8, ptr %15) #15
  %23 = load ptr, ptr %10, align 8
  %24 = load i32, ptr %11, align 4
  %25 = call ptr @aeron_transport_stream_find(ptr noundef %23, i32 noundef %24)
  store ptr %25, ptr %15, align 8
  %26 = load ptr, ptr %15, align 8
  %27 = icmp ne ptr %26, null
  br i1 %27, label %28, label %114

28:                                               ; preds = %7
  call void @llvm.lifetime.start.p0(i64 8, ptr %16) #15
  %29 = load ptr, ptr %15, align 8
  %30 = getelementptr inbounds nuw %struct.aeron_stream_t_stct, ptr %29, i32 0, i32 6
  %31 = load i32, ptr %30, align 4
  %32 = icmp eq i32 %31, 0
  br i1 %32, label %33, label %37

33:                                               ; preds = %28
  %34 = load i32, ptr %14, align 4
  %35 = load ptr, ptr %15, align 8
  %36 = getelementptr inbounds nuw %struct.aeron_stream_t_stct, ptr %35, i32 0, i32 6
  store i32 %34, ptr %36, align 4
  br label %37

37:                                               ; preds = %33, %28
  %38 = load ptr, ptr %15, align 8
  %39 = load i32, ptr %12, align 4
  %40 = call ptr @aeron_stream_term_find(ptr noundef %38, i32 noundef %39)
  store ptr %40, ptr %16, align 8
  %41 = load ptr, ptr %16, align 8
  %42 = icmp ne ptr %41, null
  br i1 %42, label %43, label %113

43:                                               ; preds = %37
  call void @llvm.lifetime.start.p0(i64 8, ptr %17) #15
  %44 = load ptr, ptr %16, align 8
  %45 = load i32, ptr %13, align 4
  %46 = call ptr @aeron_term_fragment_find(ptr noundef %44, i32 noundef %45)
  store ptr %46, ptr %17, align 8
  %47 = load ptr, ptr %17, align 8
  %48 = icmp ne ptr %47, null
  br i1 %48, label %49, label %112

49:                                               ; preds = %43
  call void @llvm.lifetime.start.p0(i64 4, ptr %18) #15
  %50 = load i32, ptr %13, align 4
  %51 = load i32, ptr %14, align 4
  %52 = add i32 %50, %51
  store i32 %52, ptr %18, align 4
  call void @llvm.lifetime.start.p0(i64 4, ptr %19) #15
  %53 = load i32, ptr %12, align 4
  store i32 %53, ptr %19, align 4
  call void @llvm.lifetime.start.p0(i64 8, ptr %20) #15
  store ptr null, ptr %20, align 8
  call void @llvm.lifetime.start.p0(i64 8, ptr %21) #15
  %54 = load i32, ptr %18, align 4
  %55 = load ptr, ptr %15, align 8
  %56 = getelementptr inbounds nuw %struct.aeron_stream_t_stct, ptr %55, i32 0, i32 6
  %57 = load i32, ptr %56, align 4
  %58 = icmp uge i32 %54, %57
  br i1 %58, label %59, label %62

59:                                               ; preds = %49
  store i32 0, ptr %18, align 4
  %60 = load i32, ptr %19, align 4
  %61 = add i32 %60, 1
  store i32 %61, ptr %19, align 4
  br label %62

62:                                               ; preds = %59, %49
  %63 = load ptr, ptr %9, align 8
  %64 = load i32, ptr @hf_aeron_data_next_offset, align 4
  %65 = load ptr, ptr %8, align 8
  %66 = load i32, ptr %18, align 4
  %67 = call ptr @proto_tree_add_uint(ptr noundef %63, i32 noundef %64, ptr noundef %65, i32 noundef 0, i32 noundef 0, i32 noundef %66)
  store ptr %67, ptr %21, align 8
  %68 = load ptr, ptr %21, align 8
  call void @proto_item_set_generated(ptr noundef %68)
  %69 = load i32, ptr %19, align 4
  %70 = load i32, ptr %12, align 4
  %71 = icmp ne i32 %69, %70
  br i1 %71, label %72, label %82

72:                                               ; preds = %62
  %73 = load ptr, ptr %15, align 8
  %74 = load i32, ptr %19, align 4
  %75 = call ptr @aeron_stream_term_find(ptr noundef %73, i32 noundef %74)
  store ptr %75, ptr %20, align 8
  %76 = load ptr, ptr %9, align 8
  %77 = load i32, ptr @hf_aeron_data_next_offset_term, align 4
  %78 = load ptr, ptr %8, align 8
  %79 = load i32, ptr %19, align 4
  %80 = call ptr @proto_tree_add_uint(ptr noundef %76, i32 noundef %77, ptr noundef %78, i32 noundef 0, i32 noundef 0, i32 noundef %79)
  store ptr %80, ptr %21, align 8
  %81 = load ptr, ptr %21, align 8
  call void @proto_item_set_generated(ptr noundef %81)
  br label %84

82:                                               ; preds = %62
  %83 = load ptr, ptr %16, align 8
  store ptr %83, ptr %20, align 8
  br label %84

84:                                               ; preds = %82, %72
  %85 = load ptr, ptr %20, align 8
  %86 = icmp ne ptr %85, null
  br i1 %86, label %87, label %111

87:                                               ; preds = %84
  call void @llvm.lifetime.start.p0(i64 8, ptr %22) #15
  %88 = load ptr, ptr %20, align 8
  %89 = load i32, ptr %18, align 4
  %90 = call ptr @aeron_term_fragment_find(ptr noundef %88, i32 noundef %89)
  store ptr %90, ptr %22, align 8
  %91 = load ptr, ptr %22, align 8
  %92 = icmp ne ptr %91, null
  br i1 %92, label %93, label %110

93:                                               ; preds = %87
  %94 = load ptr, ptr %22, align 8
  %95 = getelementptr inbounds nuw %struct.aeron_fragment_t_stct, ptr %94, i32 0, i32 2
  %96 = load ptr, ptr %95, align 8
  %97 = icmp ne ptr %96, null
  br i1 %97, label %98, label %109

98:                                               ; preds = %93
  %99 = load ptr, ptr %9, align 8
  %100 = load i32, ptr @hf_aeron_data_next_offset_first_frame, align 4
  %101 = load ptr, ptr %8, align 8
  %102 = load ptr, ptr %22, align 8
  %103 = getelementptr inbounds nuw %struct.aeron_fragment_t_stct, ptr %102, i32 0, i32 2
  %104 = load ptr, ptr %103, align 8
  %105 = getelementptr inbounds nuw %struct.aeron_frame_info_t_stct, ptr %104, i32 0, i32 0
  %106 = load i32, ptr %105, align 8
  %107 = call ptr @proto_tree_add_uint(ptr noundef %99, i32 noundef %100, ptr noundef %101, i32 noundef 0, i32 noundef 0, i32 noundef %106)
  store ptr %107, ptr %21, align 8
  %108 = load ptr, ptr %21, align 8
  call void @proto_item_set_generated(ptr noundef %108)
  br label %109

109:                                              ; preds = %98, %93
  br label %110

110:                                              ; preds = %109, %87
  call void @llvm.lifetime.end.p0(i64 8, ptr %22) #15
  br label %111

111:                                              ; preds = %110, %84
  call void @llvm.lifetime.end.p0(i64 8, ptr %21) #15
  call void @llvm.lifetime.end.p0(i64 8, ptr %20) #15
  call void @llvm.lifetime.end.p0(i64 4, ptr %19) #15
  call void @llvm.lifetime.end.p0(i64 4, ptr %18) #15
  br label %112

112:                                              ; preds = %111, %43
  call void @llvm.lifetime.end.p0(i64 8, ptr %17) #15
  br label %113

113:                                              ; preds = %112, %37
  call void @llvm.lifetime.end.p0(i64 8, ptr %16) #15
  br label %114

114:                                              ; preds = %113, %7
  call void @llvm.lifetime.end.p0(i64 8, ptr %15) #15
  ret void
}