; Function Attrs: null_pointer_is_valid sspstrong uwtable
define internal fastcc void @aeron_next_offset_report(ptr noundef %0, ptr noundef %1, ptr %.8.val, i32 noundef %2, i32 noundef %3, i32 noundef %4, i32 noundef range(i32 0, -2147483648) %5) unnamed_addr #0 {
  %7 = alloca i32, align 4
  %8 = alloca i32, align 4
  %9 = alloca i32, align 4
  %10 = alloca i32, align 4
  %11 = alloca i32, align 4
  call void @llvm.lifetime.start.p0(i64 4, ptr nonnull %11)
  store i32 %2, ptr %11, align 4
  %12 = call ptr @wmem_map_lookup(ptr noundef %.8.val, ptr noundef nonnull %11)
  call void @llvm.lifetime.end.p0(i64 4, ptr nonnull %11)
  %.not = icmp eq ptr %12, null
  br i1 %.not, label %proto_item_set_generated.exit62, label %13

13:                                               ; preds = %6
  %14 = getelementptr inbounds nuw i8, ptr %12, i64 44
  %15 = load i32, ptr %14, align 4
  %16 = icmp eq i32 %15, 0
  br i1 %16, label %17, label %18

17:                                               ; preds = %13
  store i32 %5, ptr %14, align 4
  br label %18

18:                                               ; preds = %17, %13
  %19 = getelementptr i8, ptr %12, i64 8
  %.val54 = load ptr, ptr %19, align 8
  call void @llvm.lifetime.start.p0(i64 4, ptr nonnull %10)
  store i32 %3, ptr %10, align 4
  %20 = call ptr @wmem_map_lookup(ptr noundef %.val54, ptr noundef nonnull %10)
  call void @llvm.lifetime.end.p0(i64 4, ptr nonnull %10)
  %.not46 = icmp eq ptr %20, null
  br i1 %.not46, label %proto_item_set_generated.exit62, label %21

21:                                               ; preds = %18
  %22 = getelementptr i8, ptr %20, i64 8
  %.val56 = load ptr, ptr %22, align 8
  call void @llvm.lifetime.start.p0(i64 4, ptr nonnull %9)
  store i32 %4, ptr %9, align 4
  %23 = call ptr @wmem_map_lookup(ptr noundef %.val56, ptr noundef nonnull %9)
  call void @llvm.lifetime.end.p0(i64 4, ptr nonnull %9)
  %.not47 = icmp eq ptr %23, null
  br i1 %.not47, label %proto_item_set_generated.exit62, label %24

24:                                               ; preds = %21
  %25 = add i32 %5, %4
  %26 = load i32, ptr %14, align 4
  %.not48 = icmp ult i32 %25, %26
  %27 = add i32 %3, 1
  %spec.select53 = select i1 %.not48, i32 %25, i32 0
  %28 = load i32, ptr @hf_aeron_data_next_offset, align 4
  %29 = call ptr @proto_tree_add_uint(ptr noundef %1, i32 noundef %28, ptr noundef %0, i32 noundef 0, i32 noundef 0, i32 noundef %spec.select53)
  %.not.i = icmp eq ptr %29, null
  br i1 %.not.i, label %proto_item_set_generated.exit, label %30

30:                                               ; preds = %24
  %31 = getelementptr inbounds nuw i8, ptr %29, i64 40
  %32 = load ptr, ptr %31, align 8
  %.not5.i = icmp eq ptr %32, null
  br i1 %.not5.i, label %proto_item_set_generated.exit, label %33

33:                                               ; preds = %30
  %34 = getelementptr inbounds nuw i8, ptr %32, i64 28
  %35 = load i32, ptr %34, align 4
  %36 = or i32 %35, 2
  store i32 %36, ptr %34, align 4
  br label %proto_item_set_generated.exit

proto_item_set_generated.exit:                    ; preds = %24, %30, %33
  br i1 %.not48, label %proto_item_set_generated.exit59.thread, label %37

37:                                               ; preds = %proto_item_set_generated.exit
  %.val55 = load ptr, ptr %19, align 8
  call void @llvm.lifetime.start.p0(i64 4, ptr nonnull %8)
  store i32 %27, ptr %8, align 4
  %38 = call ptr @wmem_map_lookup(ptr noundef %.val55, ptr noundef nonnull %8)
  call void @llvm.lifetime.end.p0(i64 4, ptr nonnull %8)
  %39 = load i32, ptr @hf_aeron_data_next_offset_term, align 4
  %40 = call ptr @proto_tree_add_uint(ptr noundef %1, i32 noundef %39, ptr noundef %0, i32 noundef 0, i32 noundef 0, i32 noundef %27)
  %.not.i57 = icmp eq ptr %40, null
  br i1 %.not.i57, label %proto_item_set_generated.exit59, label %41

41:                                               ; preds = %37
  %42 = getelementptr inbounds nuw i8, ptr %40, i64 40
  %43 = load ptr, ptr %42, align 8
  %.not5.i58 = icmp eq ptr %43, null
  br i1 %.not5.i58, label %proto_item_set_generated.exit59, label %44

44:                                               ; preds = %41
  %45 = getelementptr inbounds nuw i8, ptr %43, i64 28
  %46 = load i32, ptr %45, align 4
  %47 = or i32 %46, 2
  store i32 %47, ptr %45, align 4
  br label %proto_item_set_generated.exit59

proto_item_set_generated.exit59:                  ; preds = %44, %41, %37
  %.not50 = icmp eq ptr %38, null
  br i1 %.not50, label %proto_item_set_generated.exit62, label %proto_item_set_generated.exit59.thread

proto_item_set_generated.exit59.thread:           ; preds = %proto_item_set_generated.exit, %proto_item_set_generated.exit59
  %.0393 = phi ptr [ %38, %proto_item_set_generated.exit59 ], [ %20, %proto_item_set_generated.exit ]
  %48 = getelementptr i8, ptr %.0393, i64 8
  %.039.val = load ptr, ptr %48, align 8
  call void @llvm.lifetime.start.p0(i64 4, ptr nonnull %7)
  store i32 %spec.select53, ptr %7, align 4
  %49 = call ptr @wmem_map_lookup(ptr noundef %.039.val, ptr noundef nonnull %7)
  call void @llvm.lifetime.end.p0(i64 4, ptr nonnull %7)
  %.not51 = icmp eq ptr %49, null
  br i1 %.not51, label %proto_item_set_generated.exit62, label %50

50:                                               ; preds = %proto_item_set_generated.exit59.thread
  %51 = getelementptr inbounds nuw i8, ptr %49, i64 16
  %52 = load ptr, ptr %51, align 8
  %.not52 = icmp eq ptr %52, null
  br i1 %.not52, label %proto_item_set_generated.exit62, label %53

53:                                               ; preds = %50
  %54 = load i32, ptr @hf_aeron_data_next_offset_first_frame, align 4
  %55 = load i32, ptr %52, align 8
  %56 = call ptr @proto_tree_add_uint(ptr noundef %1, i32 noundef %54, ptr noundef %0, i32 noundef 0, i32 noundef 0, i32 noundef %55)
  %.not.i60 = icmp eq ptr %56, null
  br i1 %.not.i60, label %proto_item_set_generated.exit62, label %57

57:                                               ; preds = %53
  %58 = getelementptr inbounds nuw i8, ptr %56, i64 40
  %59 = load ptr, ptr %58, align 8
  %.not5.i61 = icmp eq ptr %59, null
  br i1 %.not5.i61, label %proto_item_set_generated.exit62, label %60

60:                                               ; preds = %57
  %61 = getelementptr inbounds nuw i8, ptr %59, i64 28
  %62 = load i32, ptr %61, align 4
  %63 = or i32 %62, 2
  store i32 %63, ptr %61, align 4
  br label %proto_item_set_generated.exit62

proto_item_set_generated.exit62:                  ; preds = %60, %57, %53, %18, %proto_item_set_generated.exit59, %50, %proto_item_set_generated.exit59.thread, %21, %6
  ret void
}